; Function Attrs: nounwind uwtable
define ptr @Aig_Mux2(ptr noundef %0, ptr noundef %1, ptr noundef %2, ptr noundef %3) local_unnamed_addr #0 {
  %5 = tail call ptr @Aig_And(ptr noundef %0, ptr noundef %1, ptr noundef %2)
  %6 = ptrtoint ptr %1 to i64
  %7 = xor i64 %6, 1
  %8 = inttoptr i64 %7 to ptr
  %9 = tail call ptr @Aig_And(ptr noundef %0, ptr noundef %8, ptr noundef %3)
  %10 = ptrtoint ptr %5 to i64
  %11 = xor i64 %10, 1
  %12 = inttoptr i64 %11 to ptr
  %13 = ptrtoint ptr %9 to i64
  %14 = xor i64 %13, 1
  %15 = inttoptr i64 %14 to ptr
  %16 = tail call ptr @Aig_And(ptr noundef %0, ptr noundef %12, ptr noundef %15)
  %17 = ptrtoint ptr %16 to i64
  %18 = xor i64 %17, 1
  %19 = inttoptr i64 %18 to ptr
  ret ptr %19
}